target datalayout = "e-m:e-p270:32:32-p271:32:32-p272:64:64-i64:64-i128:128-f80:128-n8:16:32:64-S128"
target triple = "x86_64-pc-linux-gnu"

; Function Attrs: nounwind uwtable
define internal void @SDL_ConvertStereoToMono(ptr noundef %0, ptr noundef %1, i32 noundef %2) #0 {
  %4 = alloca ptr, align 8
  %5 = alloca ptr, align 8
  %6 = alloca i32, align 4
  %7 = alloca i32, align 4
  store ptr %0, ptr %4, align 8
  store ptr %1, ptr %5, align 8
  store i32 %2, ptr %6, align 4
  call void @llvm.lifetime.start.p0(i64 4, ptr %7) #7
  %8 = load i32, ptr %6, align 4
  store i32 %8, ptr %7, align 4
  br label %9

9:                                                ; preds = %23, %3
  %10 = load i32, ptr %7, align 4
  %11 = icmp ne i32 %10, 0
  br i1 %11, label %12, label %30

12:                                               ; preds = %9
  %13 = load ptr, ptr %5, align 8
  %14 = getelementptr inbounds float, ptr %13, i64 0
  %15 = load float, ptr %14, align 4
  %16 = load ptr, ptr %5, align 8
  %17 = getelementptr inbounds float, ptr %16, i64 1
  %18 = load float, ptr %17, align 4
  %19 = fmul float %18, 5.000000e-01
  %20 = call float @llvm.fmuladd.f32(float %15, float 5.000000e-01, float %19)
  %21 = load ptr, ptr %4, align 8
  %22 = getelementptr inbounds float, ptr %21, i64 0
  store float %20, ptr %22, align 4
  br label %23

23:                                               ; preds = %12
  %24 = load i32, ptr %7, align 4
  %25 = add nsw i32 %24, -1
  store i32 %25, ptr %7, align 4
  %26 = load ptr, ptr %5, align 8
  %27 = getelementptr inbounds float, ptr %26, i64 2
  store ptr %27, ptr %5, align 8
  %28 = load ptr, ptr %4, align 8
  %29 = getelementptr inbounds nuw float, ptr %28, i32 1
  store ptr %29, ptr %4, align 8
  br label %9, !llvm.loop !41

30:                                               ; preds = %9
  call void @llvm.lifetime.end.p0(i64 4, ptr %7) #7
  ret void
}