; Function Attrs: nofree norecurse nosync nounwind memory(argmem: readwrite) uwtable
define internal void @SDL_ConvertStereoToMono(ptr noundef writeonly captures(none) %0, ptr noundef readonly captures(none) %1, i32 noundef %2) #5 {
  %.not9 = icmp eq i32 %2, 0
  br i1 %.not9, label %._crit_edge, label %.lr.ph

.lr.ph:                                           ; preds = %3, %.lr.ph
  %.012 = phi i32 [ %9, %.lr.ph ], [ %2, %3 ]
  %.0711 = phi ptr [ %11, %.lr.ph ], [ %0, %3 ]
  %.0810 = phi ptr [ %10, %.lr.ph ], [ %1, %3 ]
  %4 = load float, ptr %.0810, align 4
  %5 = getelementptr inbounds nuw i8, ptr %.0810, i64 4
  %6 = load float, ptr %5, align 4
  %7 = fmul float %6, 5.000000e-01
  %8 = tail call float @llvm.fmuladd.f32(float %4, float 5.000000e-01, float %7)
  store float %8, ptr %.0711, align 4
  %9 = add nsw i32 %.012, -1
  %10 = getelementptr inbounds nuw i8, ptr %.0810, i64 8
  %11 = getelementptr inbounds nuw i8, ptr %.0711, i64 4
  %.not = icmp eq i32 %9, 0
  br i1 %.not, label %._crit_edge, label %.lr.ph, !llvm.loop !33

._crit_edge:                                      ; preds = %.lr.ph, %3
  ret void
}